target datalayout = "e-m:e-p270:32:32-p271:32:32-p272:64:64-i64:64-i128:128-f80:128-n8:16:32:64-S128"
target triple = "x86_64-unknown-linux-gnu"

%"struct.(anonymous namespace)::bool_var_act_lt" = type { ptr }
%"class.(anonymous namespace)::dact_case_split_queue" = type { %"class.(anonymous namespace)::act_case_split_queue", %class.heap }
%"class.(anonymous namespace)::act_case_split_queue" = type { %"class.smt::case_split_queue", ptr, ptr, %class.heap }
%"class.smt::case_split_queue" = type { ptr }
%class.heap = type { %"struct.(anonymous namespace)::bool_var_act_lt", %class.svector.86, %class.svector.86 }
%class.svector.86 = type { %class.vector.87 }
%class.vector.87 = type { ptr }

; Function Attrs: mustprogress uwtable
define linkonce_odr hidden void @_ZN6vectorIiLb0EjE11free_memoryEv(ptr noundef nonnull align 8 dereferenceable(8) %this) #5 comdat align 2 {
entry:
  %this.addr = alloca ptr, align 8
  store ptr %this, ptr %this.addr, align 8
  %this1 = load ptr, ptr %this.addr, align 8
  %m_data = getelementptr inbounds %class.vector.87, ptr %this1, i32 0, i32 0
  %0 = load ptr, ptr %m_data, align 8
  %add.ptr = getelementptr inbounds i32, ptr %0, i64 -2
  call void @_ZN6memory10deallocateEPv(ptr noundef %add.ptr)
  ret void
}

; Function Attrs: mustprogress uwtable
define linkonce_odr hidden void @_ZN6vectorIiLb0EjE7destroyEv(ptr noundef nonnull align 8 dereferenceable(8) %this) #5 comdat align 2 {
entry:
  %this.addr = alloca ptr, align 8
  store ptr %this, ptr %this.addr, align 8
  %this1 = load ptr, ptr %this.addr, align 8
  %m_data = getelementptr inbounds %class.vector.87, ptr %this1, i32 0, i32 0
  %0 = load ptr, ptr %m_data, align 8
  %tobool = icmp ne ptr %0, null
  br i1 %tobool, label %if.then, label %if.end

if.then:                                          ; preds = %entry
  call void @_ZN6vectorIiLb0EjE11free_memoryEv(ptr noundef nonnull align 8 dereferenceable(8) %this1)
  br label %if.end

if.end:                                           ; preds = %if.then, %entry
  ret void
}

; Function Attrs: mustprogress nounwind uwtable
define linkonce_odr hidden void @_ZN6vectorIiLb0EjED2Ev(ptr noundef nonnull align 8 dereferenceable(8) %this) unnamed_addr #4 comdat align 2 personality ptr @__gxx_personality_v0 {
entry:
  %this.addr = alloca ptr, align 8
  store ptr %this, ptr %this.addr, align 8
  %this1 = load ptr, ptr %this.addr, align 8
  invoke void @_ZN6vectorIiLb0EjE7destroyEv(ptr noundef nonnull align 8 dereferenceable(8) %this1)
          to label %invoke.cont unwind label %terminate.lpad

invoke.cont:                                      ; preds = %entry
  ret void

terminate.lpad:                                   ; preds = %entry
  %0 = landingpad { ptr, i32 }
          catch ptr null
  %1 = extractvalue { ptr, i32 } %0, 0
  call void @__clang_call_terminate(ptr %1) #14
  unreachable
}

; Function Attrs: mustprogress nounwind uwtable
define linkonce_odr hidden void @_ZN3smt16case_split_queueD2Ev(ptr noundef nonnull align 8 dereferenceable(8) %this) unnamed_addr #4 comdat align 2 {
entry:
  %this.addr = alloca ptr, align 8
  store ptr %this, ptr %this.addr, align 8
  ret void
}

; Function Attrs: mustprogress nounwind uwtable
define linkonce_odr hidden void @_ZN7svectorIijED2Ev(ptr noundef nonnull align 8 dereferenceable(8) %this) unnamed_addr #4 comdat align 2 {
entry:
  %this.addr = alloca ptr, align 8
  store ptr %this, ptr %this.addr, align 8
  %this1 = load ptr, ptr %this.addr, align 8
  call void @_ZN6vectorIiLb0EjED2Ev(ptr noundef nonnull align 8 dereferenceable(8) %this1) #3
  ret void
}

; Function Attrs: mustprogress nounwind uwtable
define internal void @_ZN12_GLOBAL__N_120act_case_split_queueD2Ev(ptr noundef nonnull align 8 dereferenceable(48) %this) unnamed_addr #4 align 2 {
entry:
  %this.addr = alloca ptr, align 8
  store ptr %this, ptr %this.addr, align 8
  %this1 = load ptr, ptr %this.addr, align 8
  store ptr getelementptr inbounds ({ [20 x ptr] }, ptr @_ZTVN12_GLOBAL__N_120act_case_split_queueE, i32 0, i32 0, i32 2), ptr %this1, align 8
  %m_queue = getelementptr inbounds %"class.(anonymous namespace)::act_case_split_queue", ptr %this1, i32 0, i32 3
  call void @_ZN4heapIN12_GLOBAL__N_115bool_var_act_ltEED2Ev(ptr noundef nonnull align 8 dereferenceable(24) %m_queue) #3
  call void @_ZN3smt16case_split_queueD2Ev(ptr noundef nonnull align 8 dereferenceable(8) %this1) #3
  ret void
}

; Function Attrs: mustprogress nounwind uwtable
define internal void @_ZN4heapIN12_GLOBAL__N_115bool_var_act_ltEED2Ev(ptr noundef nonnull align 8 dereferenceable(24) %this) unnamed_addr #4 align 2 {
entry:
  %this.addr = alloca ptr, align 8
  store ptr %this, ptr %this.addr, align 8
  %this1 = load ptr, ptr %this.addr, align 8
  %m_value2indices = getelementptr inbounds %class.heap, ptr %this1, i32 0, i32 2
  call void @_ZN7svectorIijED2Ev(ptr noundef nonnull align 8 dereferenceable(8) %m_value2indices) #3
  %m_values = getelementptr inbounds %class.heap, ptr %this1, i32 0, i32 1
  call void @_ZN7svectorIijED2Ev(ptr noundef nonnull align 8 dereferenceable(8) %m_values) #3
  ret void
}

; Function Attrs: mustprogress nounwind uwtable
define internal void @_ZN12_GLOBAL__N_121dact_case_split_queueD2Ev(ptr noundef nonnull align 8 dereferenceable(72) %this) unnamed_addr #4 align 2 {
entry:
  %this.addr = alloca ptr, align 8
  store ptr %this, ptr %this.addr, align 8
  %this1 = load ptr, ptr %this.addr, align 8
  store ptr getelementptr inbounds ({ [20 x ptr] }, ptr @_ZTVN12_GLOBAL__N_121dact_case_split_queueE, i32 0, i32 0, i32 2), ptr %this1, align 8
  %m_delayed_queue = getelementptr inbounds %"class.(anonymous namespace)::dact_case_split_queue", ptr %this1, i32 0, i32 1
  call void @_ZN4heapIN12_GLOBAL__N_115bool_var_act_ltEED2Ev(ptr noundef nonnull align 8 dereferenceable(24) %m_delayed_queue) #3
  call void @_ZN12_GLOBAL__N_120act_case_split_queueD2Ev(ptr noundef nonnull align 8 dereferenceable(48) %this1) #3
  ret void
}