; Function Attrs: mustprogress nounwind uwtable
define internal void @_ZN12_GLOBAL__N_121dact_case_split_queueD2Ev(ptr nocapture noundef nonnull align 8 dereferenceable(72) %this) unnamed_addr #5 align 2 personality ptr @__gxx_personality_v0 {
entry:
  store ptr getelementptr inbounds ({ [20 x ptr] }, ptr @_ZTVN12_GLOBAL__N_121dact_case_split_queueE, i64 0, i32 0, i64 2), ptr %this, align 8
  %m_value2indices.i = getelementptr inbounds i8, ptr %this, i64 64
  %0 = load ptr, ptr %m_value2indices.i, align 8
  %tobool.not.i.i.i.i = icmp eq ptr %0, null
  br i1 %tobool.not.i.i.i.i, label %_ZN7svectorIijED2Ev.exit.i, label %if.then.i.i.i.i

if.then.i.i.i.i:                                  ; preds = %entry
  %add.ptr.i.i.i.i.i = getelementptr inbounds i8, ptr %0, i64 -8
  invoke void @_ZN6memory10deallocateEPv(ptr noundef nonnull %add.ptr.i.i.i.i.i)
          to label %_ZN7svectorIijED2Ev.exit.i unwind label %terminate.lpad.i.i.i

terminate.lpad.i.i.i:                             ; preds = %if.then.i.i.i.i
  %1 = landingpad { ptr, i32 }
          catch ptr null
  %2 = extractvalue { ptr, i32 } %1, 0
  tail call void @__clang_call_terminate(ptr %2) #23
  unreachable

_ZN7svectorIijED2Ev.exit.i:                       ; preds = %if.then.i.i.i.i, %entry
  %m_values.i = getelementptr inbounds i8, ptr %this, i64 56
  %3 = load ptr, ptr %m_values.i, align 8
  %tobool.not.i.i.i1.i = icmp eq ptr %3, null
  br i1 %tobool.not.i.i.i1.i, label %_ZN4heapIN12_GLOBAL__N_115bool_var_act_ltEED2Ev.exit, label %if.then.i.i.i2.i

if.then.i.i.i2.i:                                 ; preds = %_ZN7svectorIijED2Ev.exit.i
  %add.ptr.i.i.i.i3.i = getelementptr inbounds i8, ptr %3, i64 -8
  invoke void @_ZN6memory10deallocateEPv(ptr noundef nonnull %add.ptr.i.i.i.i3.i)
          to label %_ZN4heapIN12_GLOBAL__N_115bool_var_act_ltEED2Ev.exit unwind label %terminate.lpad.i.i4.i

terminate.lpad.i.i4.i:                            ; preds = %if.then.i.i.i2.i
  %4 = landingpad { ptr, i32 }
          catch ptr null
  %5 = extractvalue { ptr, i32 } %4, 0
  tail call void @__clang_call_terminate(ptr %5) #23
  unreachable

_ZN4heapIN12_GLOBAL__N_115bool_var_act_ltEED2Ev.exit: ; preds = %_ZN7svectorIijED2Ev.exit.i, %if.then.i.i.i2.i
  store ptr getelementptr inbounds ({ [20 x ptr] }, ptr @_ZTVN12_GLOBAL__N_120act_case_split_queueE, i64 0, i32 0, i64 2), ptr %this, align 8
  %m_value2indices.i.i = getelementptr inbounds i8, ptr %this, i64 40
  %6 = load ptr, ptr %m_value2indices.i.i, align 8
  %tobool.not.i.i.i.i.i = icmp eq ptr %6, null
  br i1 %tobool.not.i.i.i.i.i, label %_ZN7svectorIijED2Ev.exit.i.i, label %if.then.i.i.i.i.i

if.then.i.i.i.i.i:                                ; preds = %_ZN4heapIN12_GLOBAL__N_115bool_var_act_ltEED2Ev.exit
  %add.ptr.i.i.i.i.i.i = getelementptr inbounds i8, ptr %6, i64 -8
  invoke void @_ZN6memory10deallocateEPv(ptr noundef nonnull %add.ptr.i.i.i.i.i.i)
          to label %_ZN7svectorIijED2Ev.exit.i.i unwind label %terminate.lpad.i.i.i.i

terminate.lpad.i.i.i.i:                           ; preds = %if.then.i.i.i.i.i
  %7 = landingpad { ptr, i32 }
          catch ptr null
  %8 = extractvalue { ptr, i32 } %7, 0
  tail call void @__clang_call_terminate(ptr %8) #23
  unreachable

_ZN7svectorIijED2Ev.exit.i.i:                     ; preds = %if.then.i.i.i.i.i, %_ZN4heapIN12_GLOBAL__N_115bool_var_act_ltEED2Ev.exit
  %m_values.i.i = getelementptr inbounds i8, ptr %this, i64 32
  %9 = load ptr, ptr %m_values.i.i, align 8
  %tobool.not.i.i.i1.i.i = icmp eq ptr %9, null
  br i1 %tobool.not.i.i.i1.i.i, label %_ZN12_GLOBAL__N_120act_case_split_queueD2Ev.exit, label %if.then.i.i.i2.i.i

if.then.i.i.i2.i.i:                               ; preds = %_ZN7svectorIijED2Ev.exit.i.i
  %add.ptr.i.i.i.i3.i.i = getelementptr inbounds i8, ptr %9, i64 -8
  invoke void @_ZN6memory10deallocateEPv(ptr noundef nonnull %add.ptr.i.i.i.i3.i.i)
          to label %_ZN12_GLOBAL__N_120act_case_split_queueD2Ev.exit unwind label %terminate.lpad.i.i4.i.i

terminate.lpad.i.i4.i.i:                          ; preds = %if.then.i.i.i2.i.i
  %10 = landingpad { ptr, i32 }
          catch ptr null
  %11 = extractvalue { ptr, i32 } %10, 0
  tail call void @__clang_call_terminate(ptr %11) #23
  unreachable

_ZN12_GLOBAL__N_120act_case_split_queueD2Ev.exit: ; preds = %_ZN7svectorIijED2Ev.exit.i.i, %if.then.i.i.i2.i.i
  ret void
}